; Function Attrs: nounwind uwtable
define i64 @ossl_quic_lcidm_get_num_active_lcid(ptr noundef readonly captures(none) %0, ptr noundef %1) local_unnamed_addr #0 {
  %3 = alloca %struct.quic_lcidm_conn_st, align 8
  %4 = getelementptr i8, ptr %0, i64 16
  %.val = load ptr, ptr %4, align 8, !tbaa !12
  call void @llvm.lifetime.start.p0(i64 48, ptr nonnull %3) #11
  %5 = getelementptr inbounds nuw i8, ptr %3, i64 16
  store ptr %1, ptr %5, align 8, !tbaa !24
  %6 = call ptr @OPENSSL_LH_retrieve(ptr noundef %.val, ptr noundef nonnull %3) #11
  call void @llvm.lifetime.end.p0(i64 48, ptr nonnull %3) #11
  %7 = icmp eq ptr %6, null
  br i1 %7, label %10, label %8

8:                                                ; preds = %2
  %9 = load i64, ptr %6, align 8, !tbaa !28
  br label %10

10:                                               ; preds = %2, %8
  %.0 = phi i64 [ %9, %8 ], [ 0, %2 ]
  ret i64 %.0
}